target datalayout = "e-m:e-p270:32:32-p271:32:32-p272:64:64-i64:64-i128:128-f80:128-n8:16:32:64-S128"
target triple = "x86_64-pc-linux-gnu"

%struct.H5S_select_class_t = type { i32, ptr, ptr, ptr, ptr, ptr, ptr, ptr, ptr, ptr, ptr, ptr, ptr, ptr, ptr, ptr, ptr, ptr, ptr, ptr, ptr }
%struct.H5S_t = type { %struct.H5S_extent_t, %struct.H5S_select_t }
%struct.H5S_extent_t = type { %struct.H5O_shared_t, i32, i32, i64, i32, ptr, ptr }
%struct.H5O_shared_t = type { i32, ptr, i32, %union.anon }
%union.anon = type { %struct.H5O_mesg_loc_t }
%struct.H5O_mesg_loc_t = type { i32, i64 }
%struct.H5S_select_t = type { ptr, i8, [32 x i64], i64, %union.anon.0 }
%union.anon.0 = type { ptr }

@.str.1 = private unnamed_addr constant [103 x i8] c"generated/home/dtcxzyw/WorkSpace/Projects/compilers/llvm-opt-benchmark/bench/hdf5/hdf5/src/H5Sselect.c\00", align 1
@H5E_DATASPACE_g = external global i64, align 8
@H5E_CANTGET_g = external global i64, align 8
@H5E_CANTCOMPARE_g = external global i64, align 8
@__func__.H5S_select_intersect_block = private unnamed_addr constant [27 x i8] c"H5S_select_intersect_block\00", align 1
@.str.43 = private unnamed_addr constant [41 x i8] c"can't get selection bounds for dataspace\00", align 1
@.str.44 = private unnamed_addr constant [37 x i8] c"can't intersect block with selection\00", align 1

; Function Attrs: nounwind uwtable
define i32 @H5S_select_intersect_block(ptr noundef %0, ptr noundef %1, ptr noundef %2) #0 {
  %4 = alloca ptr, align 8
  %5 = alloca ptr, align 8
  %6 = alloca ptr, align 8
  %7 = alloca i32, align 4
  %8 = alloca i8, align 1
  %9 = alloca [32 x i64], align 16
  %10 = alloca [32 x i64], align 16
  %11 = alloca i32, align 4
  store ptr %0, ptr %4, align 8
  store ptr %1, ptr %5, align 8
  store ptr %2, ptr %6, align 8
  store i32 1, ptr %7, align 4
  store i8 0, ptr %8, align 1
  %12 = load ptr, ptr %4, align 8
  %13 = getelementptr inbounds %struct.H5S_t, ptr %12, i32 0, i32 1
  %14 = getelementptr inbounds %struct.H5S_select_t, ptr %13, i32 0, i32 0
  %15 = load ptr, ptr %14, align 8
  %16 = getelementptr inbounds %struct.H5S_select_class_t, ptr %15, i32 0, i32 0
  %17 = load i32, ptr %16, align 8
  %18 = icmp ne i32 0, %17
  br i1 %18, label %19, label %84

19:                                               ; preds = %3
  %20 = load ptr, ptr %4, align 8
  %21 = getelementptr inbounds %struct.H5S_t, ptr %20, i32 0, i32 1
  %22 = getelementptr inbounds %struct.H5S_select_t, ptr %21, i32 0, i32 0
  %23 = load ptr, ptr %22, align 8
  %24 = getelementptr inbounds %struct.H5S_select_class_t, ptr %23, i32 0, i32 7
  %25 = load ptr, ptr %24, align 8
  %26 = load ptr, ptr %4, align 8
  %27 = getelementptr inbounds [32 x i64], ptr %9, i64 0, i64 0
  %28 = getelementptr inbounds [32 x i64], ptr %10, i64 0, i64 0
  %29 = call i32 %25(ptr noundef %26, ptr noundef %27, ptr noundef %28)
  %30 = icmp slt i32 %29, 0
  br i1 %30, label %31, label %46

31:                                               ; preds = %19
  br label %32

32:                                               ; preds = %31
  br label %33

33:                                               ; preds = %32
  br label %34

34:                                               ; preds = %33
  %35 = load i64, ptr @H5E_DATASPACE_g, align 8
  %36 = load i64, ptr @H5E_CANTGET_g, align 8
  %37 = call i32 (ptr, ptr, i32, i64, i64, ptr, ...) @H5E_printf_stack(ptr noundef @.str.1, ptr noundef @__func__.H5S_select_intersect_block, i32 noundef 1935, i64 noundef %35, i64 noundef %36, ptr noundef @.str.43)
  br label %38

38:                                               ; preds = %34
  store i8 1, ptr %8, align 1
  %39 = load i8, ptr %8, align 1
  %40 = trunc i8 %39 to i1
  %41 = zext i1 %40 to i8
  store i8 %41, ptr %8, align 1
  br label %42

42:                                               ; preds = %38
  br label %43

43:                                               ; preds = %42
  store i32 -1, ptr %7, align 4
  br label %112

44:                                               ; No predecessors!
  br label %45

45:                                               ; preds = %44
  br label %46

46:                                               ; preds = %45, %19
  store i32 0, ptr %11, align 4
  br label %47

47:                                               ; preds = %80, %46
  %48 = load i32, ptr %11, align 4
  %49 = load ptr, ptr %4, align 8
  %50 = getelementptr inbounds %struct.H5S_t, ptr %49, i32 0, i32 0
  %51 = getelementptr inbounds %struct.H5S_extent_t, ptr %50, i32 0, i32 4
  %52 = load i32, ptr %51, align 8
  %53 = icmp ult i32 %48, %52
  br i1 %53, label %54, label %83

54:                                               ; preds = %47
  %55 = load i32, ptr %11, align 4
  %56 = zext i32 %55 to i64
  %57 = getelementptr inbounds [32 x i64], ptr %9, i64 0, i64 %56
  %58 = load i64, ptr %57, align 8
  %59 = load ptr, ptr %6, align 8
  %60 = load i32, ptr %11, align 4
  %61 = zext i32 %60 to i64
  %62 = getelementptr inbounds i64, ptr %59, i64 %61
  %63 = load i64, ptr %62, align 8
  %64 = icmp ugt i64 %58, %63
  br i1 %64, label %76, label %65

65:                                               ; preds = %54
  %66 = load ptr, ptr %5, align 8
  %67 = load i32, ptr %11, align 4
  %68 = zext i32 %67 to i64
  %69 = getelementptr inbounds i64, ptr %66, i64 %68
  %70 = load i64, ptr %69, align 8
  %71 = load i32, ptr %11, align 4
  %72 = zext i32 %71 to i64
  %73 = getelementptr inbounds [32 x i64], ptr %10, i64 0, i64 %72
  %74 = load i64, ptr %73, align 8
  %75 = icmp ugt i64 %70, %74
  br i1 %75, label %76, label %79

76:                                               ; preds = %65, %54
  br label %77

77:                                               ; preds = %76
  store i32 0, ptr %7, align 4
  br label %112

78:                                               ; No predecessors!
  br label %79

79:                                               ; preds = %78, %65
  br label %80

80:                                               ; preds = %79
  %81 = load i32, ptr %11, align 4
  %82 = add i32 %81, 1
  store i32 %82, ptr %11, align 4
  br label %47

83:                                               ; preds = %47
  br label %84

84:                                               ; preds = %83, %3
  %85 = load ptr, ptr %4, align 8
  %86 = getelementptr inbounds %struct.H5S_t, ptr %85, i32 0, i32 1
  %87 = getelementptr inbounds %struct.H5S_select_t, ptr %86, i32 0, i32 0
  %88 = load ptr, ptr %87, align 8
  %89 = getelementptr inbounds %struct.H5S_select_class_t, ptr %88, i32 0, i32 15
  %90 = load ptr, ptr %89, align 8
  %91 = load ptr, ptr %4, align 8
  %92 = load ptr, ptr %5, align 8
  %93 = load ptr, ptr %6, align 8
  %94 = call i32 %90(ptr noundef %91, ptr noundef %92, ptr noundef %93)
  store i32 %94, ptr %7, align 4
  %95 = icmp slt i32 %94, 0
  br i1 %95, label %96, label %111

96:                                               ; preds = %84
  br label %97

97:                                               ; preds = %96
  br label %98

98:                                               ; preds = %97
  br label %99

99:                                               ; preds = %98
  %100 = load i64, ptr @H5E_DATASPACE_g, align 8
  %101 = load i64, ptr @H5E_CANTCOMPARE_g, align 8
  %102 = call i32 (ptr, ptr, i32, i64, i64, ptr, ...) @H5E_printf_stack(ptr noundef @.str.1, ptr noundef @__func__.H5S_select_intersect_block, i32 noundef 1946, i64 noundef %100, i64 noundef %101, ptr noundef @.str.44)
  br label %103

103:                                              ; preds = %99
  store i8 1, ptr %8, align 1
  %104 = load i8, ptr %8, align 1
  %105 = trunc i8 %104 to i1
  %106 = zext i1 %105 to i8
  store i8 %106, ptr %8, align 1
  br label %107

107:                                              ; preds = %103
  br label %108

108:                                              ; preds = %107
  store i32 -1, ptr %7, align 4
  br label %112

109:                                              ; No predecessors!
  br label %110

110:                                              ; preds = %109
  br label %111

111:                                              ; preds = %110, %84
  br label %112

112:                                              ; preds = %111, %108, %77, %43
  %113 = load i32, ptr %7, align 4
  ret i32 %113
}