; Function Attrs: nounwind uwtable
define range(i32 -1, -2147483648) i32 @H5S_select_intersect_block(ptr noundef %0, ptr noundef %1, ptr noundef %2) local_unnamed_addr #3 {
  %4 = alloca [32 x i64], align 16
  %5 = alloca [32 x i64], align 16
  %6 = getelementptr inbounds i8, ptr %0, i64 80
  %7 = load ptr, ptr %6, align 8
  %8 = load i32, ptr %7, align 8
  %.not = icmp eq i32 %8, 0
  br i1 %.not, label %.loopexit, label %9

9:                                                ; preds = %3
  %10 = getelementptr inbounds i8, ptr %7, i64 56
  %11 = load ptr, ptr %10, align 8
  %12 = call i32 %11(ptr noundef nonnull %0, ptr noundef nonnull %4, ptr noundef nonnull %5) #7
  %13 = icmp slt i32 %12, 0
  br i1 %13, label %16, label %.preheader

.preheader:                                       ; preds = %9
  %14 = getelementptr inbounds i8, ptr %0, i64 56
  %15 = load i32, ptr %14, align 8
  %.not22 = icmp eq i32 %15, 0
  br i1 %.not22, label %.loopexit, label %.lr.ph.preheader

.lr.ph.preheader:                                 ; preds = %.preheader
  %wide.trip.count = zext i32 %15 to i64
  br label %.lr.ph

16:                                               ; preds = %9
  %17 = load i64, ptr @H5E_DATASPACE_g, align 8
  %18 = load i64, ptr @H5E_CANTGET_g, align 8
  %19 = call i32 (ptr, ptr, i32, i64, i64, ptr, ...) @H5E_printf_stack(ptr noundef nonnull @.str.1, ptr noundef nonnull @__func__.H5S_select_intersect_block, i32 noundef 1935, i64 noundef %17, i64 noundef %18, ptr noundef nonnull @.str.43) #7
  br label %.loopexit20

20:                                               ; preds = %26
  %indvars.iv.next = add nuw nsw i64 %indvars.iv, 1
  %exitcond.not = icmp eq i64 %indvars.iv.next, %wide.trip.count
  br i1 %exitcond.not, label %.loopexit, label %.lr.ph

.lr.ph:                                           ; preds = %.lr.ph.preheader, %20
  %indvars.iv = phi i64 [ 0, %.lr.ph.preheader ], [ %indvars.iv.next, %20 ]
  %21 = getelementptr inbounds [32 x i64], ptr %4, i64 0, i64 %indvars.iv
  %22 = load i64, ptr %21, align 8
  %23 = getelementptr inbounds i64, ptr %2, i64 %indvars.iv
  %24 = load i64, ptr %23, align 8
  %25 = icmp ugt i64 %22, %24
  br i1 %25, label %.loopexit20, label %26

26:                                               ; preds = %.lr.ph
  %27 = getelementptr inbounds i64, ptr %1, i64 %indvars.iv
  %28 = load i64, ptr %27, align 8
  %29 = getelementptr inbounds [32 x i64], ptr %5, i64 0, i64 %indvars.iv
  %30 = load i64, ptr %29, align 8
  %31 = icmp ugt i64 %28, %30
  br i1 %31, label %.loopexit20, label %20

.loopexit:                                        ; preds = %20, %.preheader, %3
  %32 = load ptr, ptr %6, align 8
  %33 = getelementptr inbounds i8, ptr %32, i64 120
  %34 = load ptr, ptr %33, align 8
  %35 = call i32 %34(ptr noundef nonnull %0, ptr noundef %1, ptr noundef %2) #7
  %36 = icmp slt i32 %35, 0
  br i1 %36, label %37, label %.loopexit20

37:                                               ; preds = %.loopexit
  %38 = load i64, ptr @H5E_DATASPACE_g, align 8
  %39 = load i64, ptr @H5E_CANTCOMPARE_g, align 8
  %40 = call i32 (ptr, ptr, i32, i64, i64, ptr, ...) @H5E_printf_stack(ptr noundef nonnull @.str.1, ptr noundef nonnull @__func__.H5S_select_intersect_block, i32 noundef 1946, i64 noundef %38, i64 noundef %39, ptr noundef nonnull @.str.44) #7
  br label %.loopexit20

.loopexit20:                                      ; preds = %26, %.lr.ph, %.loopexit, %37, %16
  %.018 = phi i32 [ -1, %16 ], [ -1, %37 ], [ %35, %.loopexit ], [ 0, %.lr.ph ], [ 0, %26 ]
  ret i32 %.018
}